-----BEGIN RSA PRIVATE KEY-----
MIICXAIBAAKBgQCWHY4o2SDuch3J7T6LGC9uCCpPi5jB7X0rYot5fVXWtUcj1zvN
GaXn+a0hfIfBLCRQLfbaMrtTz0VadYNYPqiqsaJeNaYiRi2tkcrwaE/zTC3v/ys/
YUdsQGQCKiFuipOLmzRNZ6NTVj5ttQwGvShcv0EnRHVdCF0/i/6SMRAZ6wIDAQAB
AoGAFlJEvjwzEmGznkABycsJ2nGqYPOf/k4jC512odUKO4fvERxDDydeLRVKMi2D
Pi0jJS0AhMeAZWDvrhjFNAz1JVo+1MomCHnCb0Ppq1ZSYintCJwj1/2k4Lg45fP9
FDOiv5pHG75ggjAi5xatb3qHJsD/ORa3ZUS4XtZ/jFQekjECQQDICcGVgNZiukyv
t6m84r7Y8hHTQwb37cv0ADR8OLiPekoaRjs8U8Z59EMq9UbuNlzxW+qpZebeb+Q5
yvZeOZqjAkEAwBx1nYX6vwsB70O2Dd3+uFhAY9mcYcL1dnU99bQqhYQW1zU1kXe6
crVrkYJs5s7edsJE71JK5Oz5aqzL09AAGQJBAJJdEReivTpftdycNcXO4nU6KXC6
ik69340Y2U5K8j+I6s9us8jgQ0jYQI0eClghzr+K0ZhAxzvaAtOGfd1TqKECQGU4
GXgvuVejExffkzJnPugeB38UjuKrd+08BLNKhATo/afSLzE/5gq+L7jxATPy1x+3
Z964eyF3AksEVDh7pTECQA1neeOeKfZwg844HaEZm3vVbTrZ8WMt7JMBAtoAlR19
RBhhrB6P0jgq/FX9ejHfe9fX0zaOo2ba6CHy4UPHCHI=
-----END RSA PRIVATE KEY-----
Certificate:
    Data:
        Version: 3 (0x2)
        Serial Number: 2 (0x2)
    Signature Algorithm: sha1WithRSAEncryption
        Issuer: C=KR, CN=gilgil
        Validity
            Not Before: Mar  1 00:00:00 2014 GMT
            Not After : Feb 27 00:00:00 2024 GMT
        Subject: C=KR, CN=hhro
        Subject Public Key Info:
            Public Key Algorithm: rsaEncryption
                Public-Key: (1024 bit)
                Modulus:
                    00:96:1d:8e:28:d9:20:ee:72:1d:c9:ed:3e:8b:18:
                    2f:6e:08:2a:4f:8b:98:c1:ed:7d:2b:62:8b:79:7d:
                    55:d6:b5:47:23:d7:3b:cd:19:a5:e7:f9:ad:21:7c:
                    87:c1:2c:24:50:2d:f6:da:32:bb:53:cf:45:5a:75:
                    83:58:3e:a8:aa:b1:a2:5e:35:a6:22:46:2d:ad:91:
                    ca:f0:68:4f:f3:4c:2d:ef:ff:2b:3f:61:47:6c:40:
                    64:02:2a:21:6e:8a:93:8b:9b:34:4d:67:a3:53:56:
                    3e:6d:b5:0c:06:bd:28:5c:bf:41:27:44:75:5d:08:
                    5d:3f:8b:fe:92:31:10:19:eb
                Exponent: 65537 (0x10001)
        X509v3 extensions:
            X509v3 Basic Constraints: 
                CA:FALSE
            Netscape Comment: 
                OpenSSL Generated Certificate
            X509v3 Subject Key Identifier: 
                F0:F5:D2:C6:E4:EE:93:F0:18:80:3E:D0:F2:51:90:7B:98:B0:E3:38
            X509v3 Authority Key Identifier: 
                DirName:/C=KR/CN=gilgil
                serial:BC:FE:EF:E9:4A:BC:63:F0

    Signature Algorithm: sha1WithRSAEncryption
         37:d8:f9:9d:19:d4:f2:d9:1a:6a:71:5e:61:c4:ac:10:5e:09:
         03:48:53:93:8d:91:c3:8e:65:7f:bb:f4:97:0b:33:f8:d3:37:
         7c:88:3e:1b:f7:b4:47:27:f0:08:fb:0e:58:fc:bc:43:4f:3e:
         55:c9:7d:d1:c1:ce:ba:92:bb:04:0b:e2:36:e4:5a:99:c1:0a:
         32:f1:ce:32:14:2e:36:fb:a3:3b:5f:0a:40:39:a6:45:19:b0:
         46:bf:71:56:b1:0f:a5:e8:a6:b5:b9:50:6b:5d:78:e0:c8:83:
         37:3b:44:d2:0a:ba:c4:6e:6d:80:b1:2c:90:e2:5d:e0:56:f9:
         c1:d0
-----BEGIN CERTIFICATE-----
MIICSjCCAbOgAwIBAgIBAjANBgkqhkiG9w0BAQUFADAeMQswCQYDVQQGEwJLUjEP
MA0GA1UEAwwGZ2lsZ2lsMCIYDzIwMTQwMzAxMDAwMDAwWhgPMjAyNDAyMjcwMDAw
MDBaMBwxCzAJBgNVBAYTAktSMQ0wCwYDVQQDDARoaHJvMIGfMA0GCSqGSIb3DQEB
AQUAA4GNADCBiQKBgQCWHY4o2SDuch3J7T6LGC9uCCpPi5jB7X0rYot5fVXWtUcj
1zvNGaXn+a0hfIfBLCRQLfbaMrtTz0VadYNYPqiqsaJeNaYiRi2tkcrwaE/zTC3v
/ys/YUdsQGQCKiFuipOLmzRNZ6NTVj5ttQwGvShcv0EnRHVdCF0/i/6SMRAZ6wID
AQABo4GVMIGSMAkGA1UdEwQCMAAwLAYJYIZIAYb4QgENBB8WHU9wZW5TU0wgR2Vu
ZXJhdGVkIENlcnRpZmljYXRlMB0GA1UdDgQWBBTw9dLG5O6T8BiAPtDyUZB7mLDj
ODA4BgNVHSMEMTAvoSKkIDAeMQswCQYDVQQGEwJLUjEPMA0GA1UEAwwGZ2lsZ2ls
ggkAvP7v6Uq8Y/AwDQYJKoZIhvcNAQEFBQADgYEAN9j5nRnU8tkaanFeYcSsEF4J
A0hTk42Rw45lf7v0lwsz+NM3fIg+G/e0RyfwCPsOWPy8Q08+Vcl90cHOupK7BAvi
NuRamcEKMvHOMhQuNvujO18KQDmmRRmwRr9xVrEPpeimtblQa1144MiDNztE0gq6
xG5tgLEskOJd4Fb5wdA=
-----END CERTIFICATE-----
